target datalayout = "e-m:e-p270:32:32-p271:32:32-p272:64:64-i64:64-i128:128-f80:128-n8:16:32:64-S128"
target triple = "x86_64-pc-linux-gnu"

%struct.GlyphCacheInfo = type { ptr, ptr, i32, i32, i32, i32, i32, i8, ptr }

@.str = private unnamed_addr constant [56 x i8] c"AccelGlyphCache_Init: could not allocate GlyphCacheInfo\00", align 1

; Function Attrs: nounwind uwtable
define hidden ptr @AccelGlyphCache_Init(i32 noundef %0, i32 noundef %1, i32 noundef %2, i32 noundef %3, ptr noundef %4) #0 {
  %6 = alloca ptr, align 8
  %7 = alloca i32, align 4
  %8 = alloca i32, align 4
  %9 = alloca i32, align 4
  %10 = alloca i32, align 4
  %11 = alloca ptr, align 8
  %12 = alloca ptr, align 8
  store i32 %0, ptr %7, align 4
  store i32 %1, ptr %8, align 4
  store i32 %2, ptr %9, align 4
  store i32 %3, ptr %10, align 4
  store ptr %4, ptr %11, align 8
  %13 = call noalias ptr @malloc(i64 noundef 48) #4
  store ptr %13, ptr %12, align 8
  %14 = load ptr, ptr %12, align 8
  %15 = icmp eq ptr %14, null
  br i1 %15, label %16, label %17

16:                                               ; preds = %5
  call void (i32, i8, ptr, ...) @J2dTraceImpl(i32 noundef 1, i8 noundef zeroext 1, ptr noundef @.str)
  store ptr null, ptr %6, align 8
  br label %40

17:                                               ; preds = %5
  %18 = load ptr, ptr %12, align 8
  %19 = getelementptr inbounds %struct.GlyphCacheInfo, ptr %18, i32 0, i32 0
  store ptr null, ptr %19, align 8
  %20 = load ptr, ptr %12, align 8
  %21 = getelementptr inbounds %struct.GlyphCacheInfo, ptr %20, i32 0, i32 1
  store ptr null, ptr %21, align 8
  %22 = load i32, ptr %7, align 4
  %23 = load ptr, ptr %12, align 8
  %24 = getelementptr inbounds %struct.GlyphCacheInfo, ptr %23, i32 0, i32 3
  store i32 %22, ptr %24, align 4
  %25 = load i32, ptr %8, align 4
  %26 = load ptr, ptr %12, align 8
  %27 = getelementptr inbounds %struct.GlyphCacheInfo, ptr %26, i32 0, i32 4
  store i32 %25, ptr %27, align 8
  %28 = load i32, ptr %9, align 4
  %29 = load ptr, ptr %12, align 8
  %30 = getelementptr inbounds %struct.GlyphCacheInfo, ptr %29, i32 0, i32 5
  store i32 %28, ptr %30, align 4
  %31 = load i32, ptr %10, align 4
  %32 = load ptr, ptr %12, align 8
  %33 = getelementptr inbounds %struct.GlyphCacheInfo, ptr %32, i32 0, i32 6
  store i32 %31, ptr %33, align 8
  %34 = load ptr, ptr %12, align 8
  %35 = getelementptr inbounds %struct.GlyphCacheInfo, ptr %34, i32 0, i32 7
  store i8 0, ptr %35, align 4
  %36 = load ptr, ptr %11, align 8
  %37 = load ptr, ptr %12, align 8
  %38 = getelementptr inbounds %struct.GlyphCacheInfo, ptr %37, i32 0, i32 8
  store ptr %36, ptr %38, align 8
  %39 = load ptr, ptr %12, align 8
  store ptr %39, ptr %6, align 8
  br label %40

40:                                               ; preds = %17, %16
  %41 = load ptr, ptr %6, align 8
  ret ptr %41
}