; Function Attrs: nounwind uwtable
define hidden noalias noundef ptr @AccelGlyphCache_Init(i32 noundef %0, i32 noundef %1, i32 noundef %2, i32 noundef %3, ptr noundef %4) local_unnamed_addr #0 {
  %6 = tail call noalias dereferenceable_or_null(48) ptr @malloc(i64 noundef 48) #8
  %7 = icmp eq ptr %6, null
  br i1 %7, label %8, label %9

8:                                                ; preds = %5
  tail call void (i32, i8, ptr, ...) @J2dTraceImpl(i32 noundef 1, i8 noundef zeroext 1, ptr noundef nonnull @.str) #9
  br label %16

9:                                                ; preds = %5
  %10 = getelementptr inbounds i8, ptr %6, i64 20
  tail call void @llvm.memset.p0.i64(ptr noundef nonnull align 8 dereferenceable(16) %6, i8 0, i64 16, i1 false)
  store i32 %0, ptr %10, align 4
  %11 = getelementptr inbounds i8, ptr %6, i64 24
  store i32 %1, ptr %11, align 8
  %12 = getelementptr inbounds i8, ptr %6, i64 28
  store i32 %2, ptr %12, align 4
  %13 = getelementptr inbounds i8, ptr %6, i64 32
  store i32 %3, ptr %13, align 8
  %14 = getelementptr inbounds i8, ptr %6, i64 36
  store i8 0, ptr %14, align 4
  %15 = getelementptr inbounds i8, ptr %6, i64 40
  store ptr %4, ptr %15, align 8
  br label %16

16:                                               ; preds = %9, %8
  ret ptr %6
}